; Function Attrs: mustprogress uwtable
define hidden noundef ptr @_Z13mk_aig_tacticRK10params_ref(ptr noundef nonnull align 8 dereferenceable(8) %0) local_unnamed_addr #3 personality ptr @__gxx_personality_v0 {
  %2 = tail call noalias noundef ptr @_ZN6memory8allocateEm(i64 noundef 40)
  %3 = getelementptr inbounds nuw i8, ptr %2, i64 8
  store i32 0, ptr %3, align 8, !tbaa !3
  store ptr getelementptr inbounds nuw inrange(-16, 192) (i8, ptr @_ZTV10aig_tactic, i64 16), ptr %2, align 8, !tbaa !9
  %4 = getelementptr inbounds nuw i8, ptr %2, i64 32
  store ptr null, ptr %4, align 8, !tbaa !11
  %5 = tail call noundef i32 @_ZNK10params_ref8get_uintEPKcj(ptr noundef nonnull align 8 dereferenceable(8) %0, ptr noundef nonnull @.str.7, i32 noundef -1)
  %6 = icmp eq i32 %5, -1
  %7 = zext i32 %5 to i64
  %8 = shl nuw nsw i64 %7, 20
  %.0.i.i.i = select i1 %6, i64 -1, i64 %8
  %9 = getelementptr inbounds nuw i8, ptr %2, i64 16
  store i64 %.0.i.i.i, ptr %9, align 8, !tbaa !17
  %10 = tail call noundef zeroext i1 @_ZNK10params_ref8get_boolEPKcb(ptr noundef nonnull align 8 dereferenceable(8) %0, ptr noundef nonnull @.str.8, i1 noundef zeroext true)
  %11 = getelementptr inbounds nuw i8, ptr %2, i64 24
  %12 = zext i1 %10 to i8
  store i8 %12, ptr %11, align 8, !tbaa !18
  %13 = tail call noundef ptr @_Z5cleanP6tactic(ptr noundef nonnull %2)
  ret ptr %13
}